target datalayout = "e-m:e-p270:32:32-p271:32:32-p272:64:64-i64:64-i128:128-f80:128-n8:16:32:64-S128"
target triple = "x86_64-pc-linux-gnu"

@.str.7826 = private unnamed_addr constant [15 x i8] c"%04u/%02u/%02u\00", align 1

; Function Attrs: null_pointer_is_valid sspstrong uwtable
define internal void @padd_date(ptr noundef %0, i32 noundef %1) #0 {
  %3 = alloca ptr, align 8
  %4 = alloca i32, align 4
  store ptr %0, ptr %3, align 8
  store i32 %1, ptr %4, align 4
  %5 = load ptr, ptr %3, align 8
  %6 = load ptr, ptr %3, align 8
  %7 = call i64 @llvm.objectsize.i64.p0(ptr %6, i1 false, i1 true, i1 true)
  %8 = load i32, ptr %4, align 4
  %9 = and i32 %8, 65024
  %10 = lshr i32 %9, 9
  %11 = add i32 %10, 1980
  %12 = load i32, ptr %4, align 4
  %13 = and i32 %12, 480
  %14 = lshr i32 %13, 5
  %15 = load i32, ptr %4, align 4
  %16 = and i32 %15, 31
  %17 = call i32 (ptr, i64, i32, i64, ptr, ...) @__snprintf_chk(ptr noundef %5, i64 noundef 240, i32 noundef 2, i64 noundef %7, ptr noundef @.str.7826, i32 noundef %11, i32 noundef %14, i32 noundef %16)
  ret void
}