; Function Attrs: nofree null_pointer_is_valid sspstrong uwtable
define internal void @padd_date(ptr noundef %0, i32 noundef %1) #7 {
  %3 = lshr i32 %1, 9
  %4 = and i32 %3, 127
  %5 = add nuw nsw i32 %4, 1980
  %6 = lshr i32 %1, 5
  %7 = and i32 %6, 15
  %8 = and i32 %1, 31
  %9 = tail call i32 (ptr, i64, i32, i64, ptr, ...) @__snprintf_chk(ptr noundef %0, i64 noundef 240, i32 noundef 2, i64 noundef -1, ptr noundef nonnull @.str.7826, i32 noundef %5, i32 noundef %7, i32 noundef %8)
  ret void
}